target datalayout = "e-m:e-p270:32:32-p271:32:32-p272:64:64-i64:64-i128:128-f80:128-n8:16:32:64-S128"
target triple = "x86_64-pc-linux-gnu"

%class.QString = type { %struct.QArrayDataPointer }
%struct.QArrayDataPointer = type { ptr, ptr, i64 }
%class.ResolvedAddressesDialog = type { %class.GeometryStateDialog, ptr, %class.QString, %class.QString, ptr, ptr, ptr, ptr, ptr, ptr }
%class.GeometryStateDialog = type { %class.QDialog, %class.QString, ptr }
%class.QDialog = type { %class.QWidget }
%class.QWidget = type { %class.QObject, %class.QPaintDevice.base, ptr }
%class.QObject = type { ptr, %class.QScopedPointer }
%class.QScopedPointer = type { ptr }
%class.QPaintDevice.base = type <{ ptr, i16 }>

; Function Attrs: mustprogress null_pointer_is_valid sspstrong uwtable
define void @_ZN23ResolvedAddressesDialog28on_txtPortFilter_textChangedE7QString(ptr noundef align 8 dereferenceable_or_null(176) %0, ptr noundef %1) #4 align 2 {
  %3 = alloca ptr, align 8
  %4 = alloca ptr, align 8
  store ptr %0, ptr %3, align 8
  store ptr %1, ptr %4, align 8
  %5 = load ptr, ptr %3, align 8
  %6 = getelementptr inbounds nuw %class.ResolvedAddressesDialog, ptr %5, i32 0, i32 8
  %7 = load ptr, ptr %6, align 8
  %8 = icmp ne ptr %7, null
  br i1 %8, label %10, label %9

9:                                                ; preds = %2
  br label %13

10:                                               ; preds = %2
  %11 = getelementptr inbounds nuw %class.ResolvedAddressesDialog, ptr %5, i32 0, i32 8
  %12 = load ptr, ptr %11, align 8
  call void @_ZN35AStringListListSortFilterProxyModel9setFilterERK7QString(ptr noundef align 8 dereferenceable_or_null(120) %12, ptr noundef align 8 dereferenceable(24) %1)
  br label %13

13:                                               ; preds = %10, %9
  ret void
}