; Function Attrs: mustprogress null_pointer_is_valid sspstrong uwtable
define void @_ZN23ResolvedAddressesDialog28on_txtPortFilter_textChangedE7QString(ptr noundef readonly align 8 captures(none) dereferenceable_or_null(176) %0, ptr noundef %1) local_unnamed_addr #2 align 2 {
  %3 = getelementptr inbounds nuw i8, ptr %0, i64 160
  %4 = load ptr, ptr %3, align 8
  %.not = icmp eq ptr %4, null
  br i1 %.not, label %6, label %5

5:                                                ; preds = %2
  tail call void @_ZN35AStringListListSortFilterProxyModel9setFilterERK7QString(ptr noundef nonnull align 8 dereferenceable_or_null(120) %4, ptr noundef align 8 dereferenceable(24) %1)
  br label %6

6:                                                ; preds = %2, %5
  ret void
}